target datalayout = "e-m:e-p270:32:32-p271:32:32-p272:64:64-i64:64-i128:128-f80:128-n8:16:32:64-S128"
target triple = "x86_64-pc-linux-gnu"

%class.MetaspaceClosure = type { ptr, ptr, i32, ptr }
%"class.MetaspaceClosure::Ref" = type { ptr, i32, ptr, ptr }

; Function Attrs: mustprogress nounwind uwtable
define linkonce_odr hidden noundef i32 @_ZNK16MetaspaceClosure3Ref11writabilityEv(ptr noundef nonnull align 8 dereferenceable(32) %0) #1 comdat align 2 {
  %2 = alloca ptr, align 8
  store ptr %0, ptr %2, align 8
  %3 = load ptr, ptr %2, align 8
  %4 = getelementptr inbounds %"class.MetaspaceClosure::Ref", ptr %3, i32 0, i32 1
  %5 = load i32, ptr %4, align 8
  ret i32 %5
}

; Function Attrs: mustprogress nounwind uwtable
define hidden void @_ZN16MetaspaceClosure7do_pushEPNS_3RefE(ptr noundef nonnull align 8 dereferenceable(32) %0, ptr noundef %1) #1 align 2 {
  %3 = alloca ptr, align 8
  %4 = alloca ptr, align 8
  %5 = alloca i8, align 1
  %6 = alloca i32, align 4
  %7 = alloca ptr, align 8
  store ptr %0, ptr %3, align 8
  store ptr %1, ptr %4, align 8
  %8 = load ptr, ptr %3, align 8
  %9 = load ptr, ptr %4, align 8
  %10 = load ptr, ptr %9, align 8
  %11 = getelementptr inbounds ptr, ptr %10, i64 1
  %12 = load ptr, ptr %11, align 8
  %13 = call noundef zeroext i1 %12(ptr noundef nonnull align 8 dereferenceable(32) %9)
  br i1 %13, label %14, label %58

14:                                               ; preds = %2
  %15 = load ptr, ptr %4, align 8
  %16 = call noundef i32 @_ZNK16MetaspaceClosure3Ref11writabilityEv(ptr noundef nonnull align 8 dereferenceable(32) %15)
  store i32 %16, ptr %6, align 4
  %17 = load i32, ptr %6, align 4
  switch i32 %17, label %20 [
    i32 0, label %18
    i32 1, label %19
  ]

18:                                               ; preds = %14
  store i8 0, ptr %5, align 1
  br label %27

19:                                               ; preds = %14
  store i8 1, ptr %5, align 1
  br label %27

20:                                               ; preds = %14
  %21 = load ptr, ptr %4, align 8
  %22 = load ptr, ptr %21, align 8
  %23 = getelementptr inbounds ptr, ptr %22, i64 6
  %24 = load ptr, ptr %23, align 8
  %25 = call noundef zeroext i1 %24(ptr noundef nonnull align 8 dereferenceable(32) %21)
  %26 = zext i1 %25 to i8
  store i8 %26, ptr %5, align 1
  br label %27

27:                                               ; preds = %20, %19, %18
  %28 = getelementptr inbounds %class.MetaspaceClosure, ptr %8, i32 0, i32 2
  %29 = load i32, ptr %28, align 8
  %30 = icmp eq i32 %29, 0
  br i1 %30, label %31, label %32

31:                                               ; preds = %27
  br label %32

32:                                               ; preds = %31, %27
  %33 = getelementptr inbounds %class.MetaspaceClosure, ptr %8, i32 0, i32 2
  %34 = load i32, ptr %33, align 8
  %35 = add nsw i32 %34, 1
  store i32 %35, ptr %33, align 8
  %36 = load ptr, ptr %4, align 8
  %37 = load i8, ptr %5, align 1
  %38 = trunc i8 %37 to i1
  %39 = load ptr, ptr %8, align 8
  %40 = getelementptr inbounds ptr, ptr %39, i64 0
  %41 = load ptr, ptr %40, align 8
  %42 = call noundef zeroext i1 %41(ptr noundef nonnull align 8 dereferenceable(32) %8, ptr noundef %36, i1 noundef zeroext %38)
  br i1 %42, label %43, label %54

43:                                               ; preds = %32
  %44 = getelementptr inbounds %class.MetaspaceClosure, ptr %8, i32 0, i32 3
  %45 = load ptr, ptr %44, align 8
  store ptr %45, ptr %7, align 8
  %46 = load ptr, ptr %4, align 8
  %47 = getelementptr inbounds %class.MetaspaceClosure, ptr %8, i32 0, i32 3
  store ptr %46, ptr %47, align 8
  %48 = load ptr, ptr %4, align 8
  %49 = load ptr, ptr %48, align 8
  %50 = getelementptr inbounds ptr, ptr %49, i64 3
  %51 = load ptr, ptr %50, align 8
  call void %51(ptr noundef nonnull align 8 dereferenceable(32) %48, ptr noundef %8)
  %52 = load ptr, ptr %7, align 8
  %53 = getelementptr inbounds %class.MetaspaceClosure, ptr %8, i32 0, i32 3
  store ptr %52, ptr %53, align 8
  br label %54

54:                                               ; preds = %43, %32
  %55 = getelementptr inbounds %class.MetaspaceClosure, ptr %8, i32 0, i32 2
  %56 = load i32, ptr %55, align 8
  %57 = add nsw i32 %56, -1
  store i32 %57, ptr %55, align 8
  br label %58

58:                                               ; preds = %54, %2
  ret void
}

; Function Attrs: mustprogress nounwind uwtable
define linkonce_odr hidden noundef ptr @_ZNK16MetaspaceClosure3Ref4nextEv(ptr noundef nonnull align 8 dereferenceable(32) %0) #1 comdat align 2 {
  %2 = alloca ptr, align 8
  store ptr %0, ptr %2, align 8
  %3 = load ptr, ptr %2, align 8
  %4 = getelementptr inbounds %"class.MetaspaceClosure::Ref", ptr %3, i32 0, i32 3
  %5 = load ptr, ptr %4, align 8
  ret ptr %5
}

; Function Attrs: mustprogress nounwind uwtable
define hidden void @_ZN16MetaspaceClosure6finishEv(ptr noundef nonnull align 8 dereferenceable(32) %0) #1 align 2 {
  %2 = alloca ptr, align 8
  %3 = alloca ptr, align 8
  store ptr %0, ptr %2, align 8
  %4 = load ptr, ptr %2, align 8
  br label %5

5:                                                ; preds = %23, %1
  %6 = getelementptr inbounds %class.MetaspaceClosure, ptr %4, i32 0, i32 1
  %7 = load ptr, ptr %6, align 8
  %8 = icmp ne ptr %7, null
  br i1 %8, label %9, label %24

9:                                                ; preds = %5
  %10 = getelementptr inbounds %class.MetaspaceClosure, ptr %4, i32 0, i32 1
  %11 = load ptr, ptr %10, align 8
  store ptr %11, ptr %3, align 8
  %12 = getelementptr inbounds %class.MetaspaceClosure, ptr %4, i32 0, i32 1
  %13 = load ptr, ptr %12, align 8
  %14 = call noundef ptr @_ZNK16MetaspaceClosure3Ref4nextEv(ptr noundef nonnull align 8 dereferenceable(32) %13)
  %15 = getelementptr inbounds %class.MetaspaceClosure, ptr %4, i32 0, i32 1
  store ptr %14, ptr %15, align 8
  %16 = load ptr, ptr %3, align 8
  call void @_ZN16MetaspaceClosure7do_pushEPNS_3RefE(ptr noundef nonnull align 8 dereferenceable(32) %4, ptr noundef %16)
  %17 = load ptr, ptr %3, align 8
  %18 = icmp eq ptr %17, null
  br i1 %18, label %23, label %19

19:                                               ; preds = %9
  %20 = load ptr, ptr %17, align 8
  %21 = getelementptr inbounds ptr, ptr %20, i64 8
  %22 = load ptr, ptr %21, align 8
  call void %22(ptr noundef nonnull align 8 dereferenceable(32) %17) #7
  br label %23

23:                                               ; preds = %19, %9
  br label %5, !llvm.loop !6

24:                                               ; preds = %5
  ret void
}