; Function Attrs: mustprogress nounwind uwtable
define hidden void @_ZN16MetaspaceClosure6finishEv(ptr noundef nonnull align 8 dereferenceable(32) %0) local_unnamed_addr #0 align 2 {
  %2 = getelementptr inbounds i8, ptr %0, i64 8
  %3 = load ptr, ptr %2, align 8
  %.not3 = icmp eq ptr %3, null
  br i1 %.not3, label %._crit_edge, label %.lr.ph

.lr.ph:                                           ; preds = %1
  %4 = getelementptr inbounds i8, ptr %0, i64 16
  %5 = getelementptr inbounds i8, ptr %0, i64 24
  br label %6

6:                                                ; preds = %.lr.ph, %_ZN16MetaspaceClosure7do_pushEPNS_3RefE.exit
  %7 = phi ptr [ %3, %.lr.ph ], [ %40, %_ZN16MetaspaceClosure7do_pushEPNS_3RefE.exit ]
  %8 = getelementptr inbounds i8, ptr %7, i64 24
  %9 = load ptr, ptr %8, align 8
  store ptr %9, ptr %2, align 8
  %10 = load ptr, ptr %7, align 8
  %11 = getelementptr inbounds i8, ptr %10, i64 8
  %12 = load ptr, ptr %11, align 8
  %13 = tail call noundef zeroext i1 %12(ptr noundef nonnull align 8 dereferenceable(32) %7) #8
  br i1 %13, label %14, label %_ZN16MetaspaceClosure7do_pushEPNS_3RefE.exit

14:                                               ; preds = %6
  %15 = getelementptr inbounds i8, ptr %7, i64 8
  %16 = load i32, ptr %15, align 8
  switch i32 %16, label %18 [
    i32 0, label %23
    i32 1, label %17
  ]

17:                                               ; preds = %14
  br label %23

18:                                               ; preds = %14
  %19 = load ptr, ptr %7, align 8
  %20 = getelementptr inbounds i8, ptr %19, i64 48
  %21 = load ptr, ptr %20, align 8
  %22 = tail call noundef zeroext i1 %21(ptr noundef nonnull align 8 dereferenceable(32) %7) #8
  br label %23

23:                                               ; preds = %18, %17, %14
  %.0.i = phi i1 [ %22, %18 ], [ true, %17 ], [ false, %14 ]
  %24 = load i32, ptr %4, align 8
  %25 = add nsw i32 %24, 1
  store i32 %25, ptr %4, align 8
  %26 = load ptr, ptr %0, align 8
  %27 = load ptr, ptr %26, align 8
  %28 = tail call noundef zeroext i1 %27(ptr noundef nonnull align 8 dereferenceable(32) %0, ptr noundef nonnull %7, i1 noundef zeroext %.0.i) #8
  br i1 %28, label %29, label %34

29:                                               ; preds = %23
  %30 = load ptr, ptr %5, align 8
  store ptr %7, ptr %5, align 8
  %31 = load ptr, ptr %7, align 8
  %32 = getelementptr inbounds i8, ptr %31, i64 24
  %33 = load ptr, ptr %32, align 8
  tail call void %33(ptr noundef nonnull align 8 dereferenceable(32) %7, ptr noundef nonnull %0) #8
  store ptr %30, ptr %5, align 8
  br label %34

34:                                               ; preds = %29, %23
  %35 = load i32, ptr %4, align 8
  %36 = add nsw i32 %35, -1
  store i32 %36, ptr %4, align 8
  br label %_ZN16MetaspaceClosure7do_pushEPNS_3RefE.exit

_ZN16MetaspaceClosure7do_pushEPNS_3RefE.exit:     ; preds = %6, %34
  %37 = load ptr, ptr %7, align 8
  %38 = getelementptr inbounds i8, ptr %37, i64 64
  %39 = load ptr, ptr %38, align 8
  tail call void %39(ptr noundef nonnull align 8 dereferenceable(32) %7) #8
  %40 = load ptr, ptr %2, align 8
  %.not = icmp eq ptr %40, null
  br i1 %.not, label %._crit_edge, label %6, !llvm.loop !6

._crit_edge:                                      ; preds = %_ZN16MetaspaceClosure7do_pushEPNS_3RefE.exit, %1
  ret void
}